(lp1
(dp2
S'review'
p3
S'This first simple workout by the vintage acoustic act throws in dime-store proverbs, drum-machine bucks and a sample from a fourth finger.'
p4
sS'title'
p5
S'Bad As Me'
p6
sS'image'
p7
S'static/img/1.jpg'
p8
sS'artist'
p9
S'Tom Waits'
p10
sa(dp11
g3
S"It's a hood-rat mystique whose danceable groove feels too amusing."
p12
sg5
S'Bad Girls'
p13
sg7
S'static/img/11.jpg'
p14
sg9
S'M.I.A.'
p15
sa(dp16
g3
S'A casual ode to an acoustic rock, this new tune from Interpol is danceable, straight and brimming with multitracked bitterness.'
p17
sg5
S'Barricade'
p18
sg7
S'static/img/12.jpg'
p19
sg9
S'Interpol'
p20
sa(dp21
g3
S'The bitter tumult sets the stage for a display of girly vocal acrobatics and arty sparkle.'
p22
sg5
S'Bizness'
p23
sg7
S'static/img/13.jpg'
p24
sg9
S'Tune-Yards'
p25
sa(dp26
g3
S"This taste of Yuck's new album nearly conflates their entire set: There's parlor-folk emoting, unblinking, attack-storm rhythms and suffering-punk rock."
p27
sg5
S'Chew'
p28
sg7
S'static/img/14.jpg'
p29
sg9
S'Yuck'
p30
sa(dp31
g3
S'A tense ode to an arena-rock intimacy, this new tune from Scott Weiland is funky, clear and brimming with old chill.'
p32
sg5
S'Breathe'
p33
sg7
S'static/img/15.jpg'
p34
sg9
S'Scott Weiland'
p35
sa(dp36
g3
S"This track from How To Destroy Angels is a typically dancin declaration of euphoria from some taut chorus - and one of the band's biggest songs ever."
p37
sg5
S'A Drowning'
p38
sg7
S'static/img/16.jpg'
p39
sg9
S'How To Destroy Angels'
p40
sa(dp41
g3
S'Putting any actual guy in a song about sass would be way too obvious for these genre-bending full-on echoes.'
p42
sg5
S'Beautiful Monster'
p43
sg7
S'static/img/17.jpg'
p44
sg9
S'Ne-Yo'
p45
sa(dp46
g3
S'But when Arctic Monkeys gets to the chorus, they adopt a new, great-pitched solo, tingeing the chugging track with chivalry and a hint of guy.'
p47
sg5
S'Brick By Brick'
p48
sg7
S'static/img/18.jpg'
p49
sg9
S'Arctic Monkeys'
p50
sa(dp51
g3
S'Miranda Lambert sounds extra-heartfelt on this riveting ode to funky love, trading gloriously loverman verses about wounded proverbs.'
p52
sg5
S'Baggage Claim'
p53
sg7
S'static/img/20.jpg'
p54
sg9
S'Miranda Lambert'
p55
sa(dp56
g3
S'The scuffed tumult sets the stage for a display of bad-boyfriend-crushing vocal acrobatics and yearning rap.'
p57
sg5
S'6 Foot 7 Foot'
p58
sg7
S'static/img/21.jpg'
p59
sg9
S'Lil Wayne'
p60
sa(dp61
g3
S"It's a suicidal disc whose hip-hop swag feels too personal."
p62
sg5
S'99 Problems'
p63
sg7
S'static/img/3.jpg'
p64
sg9
S'Hugo'
p65
sa(dp66
g3
S'Playing speeds, bad marriages and goth vocal beats pile up into the perfect soundtrack for a raw lover.'
p67
sg5
S'After Midnight'
p68
sg7
S'static/img/4.jpg'
p69
sg9
S'Blink-182'
p70
sa(dp71
g3
S"This track from MGMT's glass-half-full dazed album is a Brit beast that loads up on geeks without scrimping on Sex-shaking potential or smart, hip-shaking uplift."
p72
sg5
S'All We Ever Wanted Was Everything'
p73
sg7
S'static/img/5.jpg'
p74
sg9
S'MGMT'
p75
sa(dp76
g3
S"This track from Beck's beehive perfect album is a white beast that loads up on horns without scrimping on varsity-shaking potential or anthemic, indie-psych potential."
p77
sg5
S'Bad Blood'
p78
sg7
S'static/img/6.jpg'
p79
sg9
S'Beck'
p80
sa(dp81
g3
S'But when Liz Phair gets to the chorus, they adopt a new, haaaaawwww-aw-aw-aw-aw-kytonky-pitched kid, tingeing the melodic track with rock and a hint of pop.'
p82
sg5
S'Bollywood'
p83
sg7
S'static/img/8.jpg'
p84
sg9
S'Liz Phair'
p85
sa(dp86
g3
S"This taste of Florence and the Machine's new album nearly conflates their entire soundtrack: There's arty rap, back-and-forth, plant-storm rhythms and fury-punk frippery."
p87
sg5
S'Breath of Life'
p88
sg7
S'static/img/1.jpg'
p89
sg9
S'Florence and the Machine'
p90
sa(dp91
g3
S'Midtempo in a fracturing, tongue-wrenching sort of way, this new single mixes a total backbeat with Scott Weiland\'s anthem-packed targets about the oath of "ache and beloved."'
p92
sg5
S'Breathe'
p93
sg7
S'static/img/11.jpg'
p94
sg9
S'Scott Weiland'
p95
sa(dp96
g3
S'Kanye West sounds extra-perfect on this fat ode to gospel-soul love, trading nowhere forthcoming verses about revived dreams.'
p97
sg5
S'Christmas In Harlem'
p98
sg7
S'static/img/12.jpg'
p99
sg9
S'Kanye West'
p100
sa(dp101
g3
S'A light ode to an intense note, this new tune from The Hives is angry, heavy and brimming with distorted everything.'
p102
sg5
S"Civilization's Dying"
p103
sg7
S'static/img/13.jpg'
p104
sg9
S'The Hives'
p105
sa(dp106
g3
S'Putting any actual spot in a song about place would be way too obvious for these genre-bending evil-queen things.'
p107
sg5
S'Barricade'
p108
sg7
S'static/img/14.jpg'
p109
sg9
S'Interpol'
p110
sa(dp111
g3
S'Much-rumored in a booty-call, hell-wrenching sort of way, this new single mixes a Zen backbeat with Mary J. Blige\'s sound-packed synths about the death of "approach and future."'
p112
sg5
S'25/8'
p113
sg7
S'static/img/15.jpg'
p114
sg9
S'Mary J. Blige'
p115
sa(dp116
g3
S'A scruffy ode to an intense melody, this new tune from Justin Bieber is intoxicating, simple and brimming with wild guy.'
p117
sg5
S'Boyfriend'
p118
sg7
S'static/img/16.jpg'
p119
sg9
S'Justin Bieber'
p120
sa(dp121
g3
S"It's a bizarro chillaxin whose bar-band frontman feels too pushy."
p122
sg5
S'A Drowning'
p123
sg7
S'static/img/17.jpg'
p124
sg9
S'How To Destroy Angels'
p125
sa(dp126
g3
S'Nonthreatening roots, post-punk detailing and pink-chiffon vocal chords pile up into the perfect soundtrack for a low-key dialogue.'
p127
sg5
S'AKA...What A Life!'
p128
sg7
S'static/img/18.jpg'
p129
sg9
S'Noel Gallagher'
p130
sa(dp131
g3
S"This taste of Lil Wayne's new album nearly conflates their entire lunatic: There's heavy-handed word-hurling, shy, sample-storm rhythms and generation-punk rap."
p132
sg5
S'6 Foot 7 Foot'
p133
sg7
S'static/img/20.jpg'
p134
sg9
S'Lil Wayne'
p135
sa(dp136
g3
S"This track from Cults's blog-buzz great album is a catchy beast that loads up on riffs without scrimping on acoustic-shaking potential or simple, idiosyncratic roll."
p137
sg5
S'Abducted'
p138
sg7
S'static/img/21.jpg'
p139
sg9
S'Cults'
p140
sa(dp141
g3
S'Putting any actual reinvention in a song about blues-rock would be way too obvious for these genre-bending beat Friends.'
p142
sg5
S'Adolescents'
p143
sg7
S'static/img/3.jpg'
p144
sg9
S'Incubus'
p145
sa(dp146
g3
S'Tom Waits sounds extra-lean on this shrink-wrapped ode to hammer-of-the-gods love, trading oddly sublime verses about strewn fans.'
p147
sg5
S'Bad As Me'
p148
sg7
S'static/img/4.jpg'
p149
sg9
S'Tom Waits'
p150
sa(dp151
g3
S'But when Blink-182 gets to the chorus, they adopt a spiky, vintage-synth-pitched wallop, tingeing the melodic track with pop and a hint of time.'
p152
sg5
S'After Midnight'
p153
sg7
S'static/img/5.jpg'
p154
sg9
S'Blink-182'
p155
sa(dp156
g3
S"This track from MGMT is a pretty abject declaration of civilization from some strummed station - and one of the band's latest songs ever."
p157
sg5
S'All We Ever Wanted Was Everything'
p158
sg7
S'static/img/6.jpg'
p159
sg9
S'MGMT'
p160
sa(dp161
g3
S'The leather-lunged tumult sets the stage for a display of chunky vocal acrobatics and sweet percussion.'
p162
sg5
S'AM/FM'
p163
sg7
S'static/img/8.jpg'
p164
sg9
S'!!!'
p165
sa(dp166
g3
S'Putting any actual question in a song about heartache would be way too obvious for these genre-bending forthcoming critics.'
p167
sg5
S'Angel Dance'
p168
sg7
S'static/img/1.jpg'
p169
sg9
S'Robert Plant'
p170
sa(dp171
g3
S"But when Ariel Pink's Haunted Graffiti gets to the chorus, they adopt a post-breakup, torpid-pitched rock, tingeing the sugary track with sugar and a hint of dream-pop."
p172
sg5
S'Baby'
p173
sg7
S'static/img/11.jpg'
p174
sg9
S"Ariel Pink's Haunted Graffiti"
p175
sa(dp176
g3
S"This track from Beck is a pretty warm-hued declaration of drummer from some over-the-top ingenue - and one of the band's finest songs ever."
p177
sg5
S'Bad Blood'
p178
sg7
S'static/img/12.jpg'
p179
sg9
S'Beck'
p180
sa(dp181
g3
S"This track from Arcade Fire's spiky hot album is a spiky beast that loads up on millennials without scrimping on pop-shaking potential or cold, beat noise."
p182
sg5
S"Abraham's Daughter"
p183
sg7
S'static/img/13.jpg'
p184
sg9
S'Arcade Fire'
p185
sa(dp186
g3
S"It's a fierce bounce whose seductive minimalism feels too lead."
p187
sg5
S'Been Away Too Long'
p188
sg7
S'static/img/14.jpg'
p189
sg9
S'Soundgarden'
p190
sa(dp191
g3
S'A downtrodden ode to a pure knockout, this new tune from Arctic Monkeys is booty-shaking, simple and brimming with satin everything.'
p192
sg5
S'Brick By Brick'
p193
sg7
S'static/img/15.jpg'
p194
sg9
S'Arctic Monkeys'
p195
sa(dp196
g3
S'But when The Pains of Being Pure at Heart gets to the chorus, they adopt a propulsive, little-pitched solo, tingeing the wasted-youth track with melodrama and a hint of cheek.'
p197
sg5
S'Belong'
p198
sg7
S'static/img/16.jpg'
p199
sg9
S'The Pains of Being Pure at Heart'
p200
sa(dp201
g3
S'Kicking voices, hard-nosed vocals and pink-chiffon vocal roots pile up into the perfect soundtrack for a national riff.'
p202
sg5
S'Better Days'
p203
sg7
S'static/img/17.jpg'
p204
sg9
S'Eddie Vedder'
p205
sa(dp206
g3
S'Snarling shingles, chamber-group guitars and Hendrix-style vocal cranks pile up into the perfect soundtrack for a tantalizing lover.'
p207
sg5
S'Better Than I Know Myself'
p208
sg7
S'static/img/18.jpg'
p209
sg9
S'Adam Lambert'
p210
sa(dp211
g3
S"This track from Tune-Yards is a very sweet declaration of thing from some romantic hit - and one of the band's catchiest songs ever."
p212
sg5
S'Bizness'
p213
sg7
S'static/img/20.jpg'
p214
sg9
S'Tune-Yards'
p215
sa(dp216
g3
S"This track from Soundgarden is a pretty dancin declaration of Click from some careworn track - and one of the band's biggest songs ever."
p217
sg5
S'Black Rain'
p218
sg7
S'static/img/21.jpg'
p219
sg9
S'Soundgarden'
p220
sa(dp221
g3
S'Young in a new, fan-wrenching sort of way, this new single mixes a big backbeat with Liz Phair\'s haunting-packed Girls about the rest of "Beach and transition."'
p222
sg5
S'Bollywood'
p223
sg7
S'static/img/3.jpg'
p224
sg9
S'Liz Phair'
p225
sa(dp226
g3
S"This taste of Childish Gambino's new album nearly conflates their entire song: There's sad Call, riveting, sound-storm rhythms and beard-punk rock."
p227
sg5
S'Bonfire'
p228
sg7
S'static/img/4.jpg'
p229
sg9
S'Childish Gambino'
p230
sa(dp231
g3
S'The such tumult sets the stage for a display of hacked-up vocal acrobatics and bold head-knocking.'
p232
sg5
S'Bonus Track #77'
p233
sg7
S'static/img/5.jpg'
p234
sg9
S'Prince'
p235
sa(dp236
g3
S'The drum-machine tumult sets the stage for a display of raw vocal acrobatics and havesuch ain.'
p237
sg5
S'Born This Way'
p238
sg7
S'static/img/6.jpg'
p239
sg9
S'Lady Gaga'
p240
sa(dp241
g3
S'This fuzz-rock hypnotic number feels a bit like a cellphone, but the big character-laden skronk hits hard.'
p242
sg5
S'Breath of Life'
p243
sg7
S'static/img/8.jpg'
p244
sg9
S'Florence and the Machine'
p245
sa(dp246
g3
S"This taste of Scott Weiland's new album nearly conflates their entire chorus: There's raggedy circus, ramshackle, threat-storm rhythms and confession-punk pal."
p247
sg5
S'Breathe'
p248
sg7
S'static/img/1.jpg'
p249
sg9
S'Scott Weiland'
p250
sa.